///////////////////////////////////////////////////////////////////////////////
//
// IAR ANSI C/C++ Compiler V7.20.2.7424/W32 for ARM       25/Jul/2015  16:58:10
// Copyright 1999-2014 IAR Systems AB.
//
//    Cpu mode     =  thumb
//    Endian       =  little
//    Source file  =  
//        C:\Users\Administrator\Desktop\lpld\LPLD_OSKinetis_V3.1\lib\LPLD\HW\HW_I2C.c
//    Command line =  
//        C:\Users\Administrator\Desktop\lpld\LPLD_OSKinetis_V3.1\lib\LPLD\HW\HW_I2C.c
//        -D LPLD_K60 -D USE_K60F12 -lCN
//        C:\Users\Administrator\Desktop\lpld\LPLD_OSKinetis_V3.1\project\ligen_car通用7-23-20.36\iar\FLASH\List\
//        -lB
//        C:\Users\Administrator\Desktop\lpld\LPLD_OSKinetis_V3.1\project\ligen_car通用7-23-20.36\iar\FLASH\List\
//        -o
//        C:\Users\Administrator\Desktop\lpld\LPLD_OSKinetis_V3.1\project\ligen_car通用7-23-20.36\iar\FLASH\Obj\
//        --no_cse --no_unroll --no_inline --no_code_motion --no_tbaa
//        --no_clustering --no_scheduling --debug --endian=little
//        --cpu=Cortex-M4F -e --fpu=None --dlib_config "C:\Program Files\IAR
//        Systems\Embedded Workbench 7.0\arm\INC\c\DLib_Config_Normal.h" -I
//        C:\Users\Administrator\Desktop\lpld\LPLD_OSKinetis_V3.1\project\ligen_car通用7-23-20.36\iar\..\app\
//        -I
//        C:\Users\Administrator\Desktop\lpld\LPLD_OSKinetis_V3.1\project\ligen_car通用7-23-20.36\iar\..\..\..\lib\CPU\
//        -I
//        C:\Users\Administrator\Desktop\lpld\LPLD_OSKinetis_V3.1\project\ligen_car通用7-23-20.36\iar\..\..\..\lib\common\
//        -I
//        C:\Users\Administrator\Desktop\lpld\LPLD_OSKinetis_V3.1\project\ligen_car通用7-23-20.36\iar\..\..\..\lib\LPLD\
//        -I
//        C:\Users\Administrator\Desktop\lpld\LPLD_OSKinetis_V3.1\project\ligen_car通用7-23-20.36\iar\..\..\..\lib\LPLD\HW\
//        -I
//        C:\Users\Administrator\Desktop\lpld\LPLD_OSKinetis_V3.1\project\ligen_car通用7-23-20.36\iar\..\..\..\lib\LPLD\DEV\
//        -I
//        C:\Users\Administrator\Desktop\lpld\LPLD_OSKinetis_V3.1\project\ligen_car通用7-23-20.36\iar\..\..\..\lib\LPLD\FUNC\
//        -I
//        C:\Users\Administrator\Desktop\lpld\LPLD_OSKinetis_V3.1\project\ligen_car通用7-23-20.36\iar\..\..\..\lib\uCOS-II\Ports\
//        -I
//        C:\Users\Administrator\Desktop\lpld\LPLD_OSKinetis_V3.1\project\ligen_car通用7-23-20.36\iar\..\..\..\lib\uCOS-II\Source\
//        -I
//        C:\Users\Administrator\Desktop\lpld\LPLD_OSKinetis_V3.1\project\ligen_car通用7-23-20.36\iar\..\..\..\lib\FatFs\
//        -I
//        C:\Users\Administrator\Desktop\lpld\LPLD_OSKinetis_V3.1\project\ligen_car通用7-23-20.36\iar\..\..\..\lib\FatFs\option\
//        -I
//        C:\Users\Administrator\Desktop\lpld\LPLD_OSKinetis_V3.1\project\ligen_car通用7-23-20.36\iar\..\..\..\lib\USB\common\
//        -I
//        C:\Users\Administrator\Desktop\lpld\LPLD_OSKinetis_V3.1\project\ligen_car通用7-23-20.36\iar\..\..\..\lib\USB\driver\
//        -I
//        C:\Users\Administrator\Desktop\lpld\LPLD_OSKinetis_V3.1\project\ligen_car通用7-23-20.36\iar\..\..\..\lib\USB\descriptor\
//        -I
//        C:\Users\Administrator\Desktop\lpld\LPLD_OSKinetis_V3.1\project\ligen_car通用7-23-20.36\iar\..\..\..\lib\USB\class\
//        -Ol -I "C:\Program Files\IAR Systems\Embedded Workbench
//        7.0\arm\CMSIS\Include\" -D ARM_MATH_CM4
//    List file    =  
//        C:\Users\Administrator\Desktop\lpld\LPLD_OSKinetis_V3.1\project\ligen_car通用7-23-20.36\iar\FLASH\List\HW_I2C.s
//
///////////////////////////////////////////////////////////////////////////////

        #define SHT_PROGBITS 0x1

        PUBLIC I2C0_IRQHandler
        PUBLIC I2C1_IRQHandler
        PUBLIC I2C_ISR
        PUBLIC LPLD_I2C_Deinit
        PUBLIC LPLD_I2C_DisableIrq
        PUBLIC LPLD_I2C_EnableIrq
        PUBLIC LPLD_I2C_Init
        PUBLIC LPLD_I2C_ReStart
        PUBLIC LPLD_I2C_ReadByte
        PUBLIC LPLD_I2C_SetMasterWR
        PUBLIC LPLD_I2C_Start
        PUBLIC LPLD_I2C_StartTrans
        PUBLIC LPLD_I2C_Stop
        PUBLIC LPLD_I2C_WaitAck
        PUBLIC LPLD_I2C_WriteByte

// C:\Users\Administrator\Desktop\lpld\LPLD_OSKinetis_V3.1\lib\LPLD\HW\HW_I2C.c
//    1 /*
//    2  * @file HW_I2C.c
//    3  * @version 3.02[By LPLD]
//    4  * @date 2013-11-22
//    5  * @brief I2C底层模块相关函数
//    6  *
//    7  * 更改建议:不建议修改
//    8  *
//    9  * 版权所有:北京拉普兰德电子技术有限公司
//   10  * http://www.lpld.cn
//   11  * mail:support@lpld.cn
//   12  *
//   13  * @par
//   14  * 本代码由拉普兰德[LPLD]开发并维护，并向所有使用者开放源代码。
//   15  * 开发者可以随意修使用或改源代码。但本段及以上注释应予以保留。
//   16  * 不得更改或删除原版权所有者姓名，二次开发者可以加注二次版权所有者。
//   17  * 但应在遵守此协议的基础上，开放源代码、不得出售代码本身。
//   18  * 拉普兰德不负责由于使用本代码所带来的任何事故、法律责任或相关不良影响。
//   19  * 拉普兰德无义务解释、说明本代码的具体原理、功能、实现方法。
//   20  * 除非拉普兰德[LPLD]授权，开发者不得将本代码用于商业产品。
//   21  */
//   22 
//   23 #include "common.h"

        SECTION `.text`:CODE:NOROOT(1)
        THUMB
// static __interwork __softfp void NVIC_EnableIRQ(IRQn_Type)
NVIC_EnableIRQ:
        MOVS     R1,#+1
        ANDS     R2,R0,#0x1F
        LSLS     R1,R1,R2
        LDR.W    R2,??DataTable7  ;; 0xe000e100
        SXTB     R0,R0            ;; SignExt  R0,R0,#+24,#+24
        LSRS     R0,R0,#+5
        STR      R1,[R2, R0, LSL #+2]
        BX       LR               ;; return

        SECTION `.text`:CODE:NOROOT(1)
        THUMB
// static __interwork __softfp void NVIC_DisableIRQ(IRQn_Type)
NVIC_DisableIRQ:
        MOVS     R1,#+1
        ANDS     R2,R0,#0x1F
        LSLS     R1,R1,R2
        LDR.W    R2,??DataTable7_1  ;; 0xe000e180
        SXTB     R0,R0            ;; SignExt  R0,R0,#+24,#+24
        LSRS     R0,R0,#+5
        STR      R1,[R2, R0, LSL #+2]
        BX       LR               ;; return
//   24 #include "HW_I2C.h"
//   25 
//   26 //用户自定义中断服务函数数组

        SECTION `.bss`:DATA:REORDER:NOROOT(2)
//   27 I2C_ISR_CALLBACK I2C_ISR[2];
I2C_ISR:
        DS8 8
//   28 
//   29 /*
//   30  * LPLD_I2C_Init
//   31  * I2C通用初始化函数，在该函数中选择I2C通道，选择I2C SCK总线频率，
//   32  * 选择I2C SDA 和 I2C SCL的引脚，配置I2C的中断回调函数
//   33  * 
//   34  * 参数:
//   35  *    I2C_InitTypeDef--i2c_init_structure
//   36  *                     具体定义见I2C_InitTypeDef
//   37  * 输出:
//   38  *    0--配置错误
//   39  *    1--配置成功
//   40  */

        SECTION `.text`:CODE:NOROOT(1)
        THUMB
//   41 uint8 LPLD_I2C_Init(I2C_InitTypeDef i2c_init_structure)
//   42 {
LPLD_I2C_Init:
        PUSH     {R0-R7}
//   43   I2C_Type *i2cx = i2c_init_structure.I2C_I2Cx;
        LDR      R0,[SP, #+0]
//   44   uint8 bus_speed = i2c_init_structure.I2C_ICR;
        LDRB     R1,[SP, #+4]
//   45   PortPinsEnum_Type scl_pin = i2c_init_structure.I2C_SclPin;
        LDRB     R5,[SP, #+6]
//   46   PortPinsEnum_Type sda_pin = i2c_init_structure.I2C_SdaPin;
        LDRB     R2,[SP, #+7]
//   47   I2C_ISR_CALLBACK isr_func = i2c_init_structure.I2C_Isr;
        LDR      R3,[SP, #+12]
//   48   boolean ode = i2c_init_structure.I2C_OpenDrainEnable;
        LDRB     R6,[SP, #+8]
//   49   uint8 ode_mask = 0;
        MOVS     R4,#+0
//   50 
//   51   //参数检查，判断SCL频率
//   52   ASSERT( bus_speed <= 0x3F);
//   53   
//   54   if(ode == TRUE)
        UXTB     R6,R6            ;; ZeroExt  R6,R6,#+24,#+24
        CMP      R6,#+1
        BNE.N    ??LPLD_I2C_Init_0
//   55   {
//   56     ode_mask = PORT_PCR_ODE_MASK;
        MOVS     R4,#+32
//   57   }
//   58 
//   59   if(i2cx == I2C0)
??LPLD_I2C_Init_0:
        LDR.N    R6,??DataTable7_2  ;; 0x40066000
        CMP      R0,R6
        BNE.N    ??LPLD_I2C_Init_1
//   60   {
//   61 #if defined(CPU_MK60DZ10) || defined(CPU_MK60D10) 
//   62     SIM->SCGC4 |= SIM_SCGC4_I2C0_MASK; //开启I2C0时钟
//   63 #elif defined(CPU_MK60F12) || defined(CPU_MK60F15)
//   64     SIM->SCGC4 |= SIM_SCGC4_IIC0_MASK; //开启I2C0时钟
        LDR.N    R6,??DataTable7_3  ;; 0x40048034
        LDR      R6,[R6, #+0]
        ORRS     R6,R6,#0x40
        LDR.N    R7,??DataTable7_3  ;; 0x40048034
        STR      R6,[R7, #+0]
//   65 #endif 
//   66     if(scl_pin == PTD8)
        UXTB     R5,R5            ;; ZeroExt  R5,R5,#+24,#+24
        CMP      R5,#+100
        BNE.N    ??LPLD_I2C_Init_2
//   67     {
//   68       PORTD->PCR[8] = PORT_PCR_MUX(2) | ode_mask;         
        UXTB     R4,R4            ;; ZeroExt  R4,R4,#+24,#+24
        ORRS     R5,R4,#0x200
        LDR.N    R6,??DataTable7_4  ;; 0x4004c020
        STR      R5,[R6, #+0]
        B.N      ??LPLD_I2C_Init_3
//   69     }
//   70     else if(scl_pin == PTB0) 
??LPLD_I2C_Init_2:
        UXTB     R5,R5            ;; ZeroExt  R5,R5,#+24,#+24
        CMP      R5,#+32
        BNE.N    ??LPLD_I2C_Init_4
//   71     {
//   72       PORTB->PCR[0] = PORT_PCR_MUX(2) | ode_mask;
        UXTB     R4,R4            ;; ZeroExt  R4,R4,#+24,#+24
        ORRS     R5,R4,#0x200
        LDR.N    R6,??DataTable7_5  ;; 0x4004a000
        STR      R5,[R6, #+0]
        B.N      ??LPLD_I2C_Init_3
//   73     }
//   74     else //scl_pin = PTB2
//   75     {
//   76       PORTB->PCR[2] = PORT_PCR_MUX(2) | ode_mask;
??LPLD_I2C_Init_4:
        UXTB     R4,R4            ;; ZeroExt  R4,R4,#+24,#+24
        ORRS     R5,R4,#0x200
        LDR.N    R6,??DataTable7_6  ;; 0x4004a008
        STR      R5,[R6, #+0]
//   77     }
//   78 
//   79     if(sda_pin == PTD9)
??LPLD_I2C_Init_3:
        UXTB     R2,R2            ;; ZeroExt  R2,R2,#+24,#+24
        CMP      R2,#+101
        BNE.N    ??LPLD_I2C_Init_5
//   80     {
//   81       PORTD->PCR[9] = PORT_PCR_MUX(2) | ode_mask;
        UXTB     R4,R4            ;; ZeroExt  R4,R4,#+24,#+24
        ORRS     R2,R4,#0x200
        LDR.N    R4,??DataTable7_7  ;; 0x4004c024
        STR      R2,[R4, #+0]
//   82     }
//   83     else if(sda_pin == PTB1) 
//   84     {
//   85       PORTB->PCR[1] = PORT_PCR_MUX(2) | ode_mask;
//   86     }
//   87     else //sda_pin = PTB3
//   88     {
//   89       PORTB->PCR[3] = PORT_PCR_MUX(2) | ode_mask; 
//   90     }
//   91   }
//   92   else if(i2cx == I2C1)
//   93   { 
//   94 #if defined(CPU_MK60DZ10) || defined(CPU_MK60D10)  
//   95     SIM->SCGC4 |= SIM_SCGC4_I2C1_MASK; //开启I2C0时钟
//   96 #elif defined(CPU_MK60F12) || defined(CPU_MK60F15)
//   97     SIM->SCGC4 |= SIM_SCGC4_IIC1_MASK; //开启I2C0时钟
//   98 #endif
//   99 
//  100     if(scl_pin == PTE1)
//  101     {
//  102       PORTE->PCR[1] = PORT_PCR_MUX(6) | ode_mask;         
//  103     }
//  104     else //scl_pin = PTC10
//  105     {
//  106       PORTC->PCR[10] = PORT_PCR_MUX(2) | ode_mask;  
//  107     }
//  108 
//  109     if(sda_pin == PTE0)
//  110     {
//  111       PORTE->PCR[0] = PORT_PCR_MUX(6) | ode_mask;
//  112     }
//  113     else //sda_pin = PTC11
//  114     {
//  115       PORTC->PCR[11] = PORT_PCR_MUX(2) | ode_mask; 
//  116     }
//  117   }
//  118   else
//  119     return 0;
//  120   
//  121   if(i2c_init_structure.I2C_IntEnable == TRUE && isr_func != NULL)
??LPLD_I2C_Init_6:
        LDRB     R2,[SP, #+5]
        CMP      R2,#+1
        BNE.N    ??LPLD_I2C_Init_7
        MOVS     R2,R3
        CMP      R2,#+0
        BEQ.N    ??LPLD_I2C_Init_7
//  122   {
//  123     //产生I2C中断的中断源：
//  124     //1,完成1个字节传输时，IICIF置位产生中断;
//  125     //2,当Calling Address匹配成功时产生中断，参考K60文档1456页I2Cx_S寄存器IAAS位;
//  126     //3,从机模式下当总线仲裁丢失时，IICIF置位产生中断;
//  127     //  需要同时写1清除II2Cx_S的ARBL标志位和 I2Cx_S的 IICIF的标志位;
//  128     //4,如果SMB寄存器的SHTF2 interrupt使能，当SHTF2 timeout时IICIF置位产生中断;
//  129     //  需要同时写1清除I2Cx_SMB的SLTF标志位和 I2Cx_S的 IICIF的标志位;
//  130     //5,当SLT寄存器不为0时，SMBus的SCL low timer计数等于SLT的值时IICIF置位产生中断;
//  131     //  需要同时写1清除I2Cx_SMB的SHTF2标志位和 I2Cx_S的 IICIF的标志位;
//  132     //6,当Wakeup 使能，I2C在停止模式下接收到Wakeup信号，将产生中断.
//  133 
//  134     i2cx->C1 |= I2C_C1_IICIE_MASK;
        LDRB     R2,[R0, #+2]
        ORRS     R2,R2,#0x40
        STRB     R2,[R0, #+2]
//  135 
//  136     if(i2cx == I2C0)
        LDR.N    R2,??DataTable7_2  ;; 0x40066000
        CMP      R0,R2
        BNE.N    ??LPLD_I2C_Init_8
//  137     {
//  138       I2C_ISR[0] = isr_func;
        LDR.N    R2,??DataTable7_8
        STR      R3,[R2, #+0]
//  139     }
//  140     else if(i2cx == I2C0)
//  141     {
//  142       I2C_ISR[1] = isr_func;
//  143     }
//  144     else 
//  145       return 0;
//  146   }
//  147 
//  148   //i2cx->C2 |= I2C_C2_HDRS_MASK;      //提高I2C驱动能力
//  149   i2cx->F  = I2C_F_ICR(bus_speed)|I2C_F_MULT(0);   //配置I2Cx SCL BusSpeed
??LPLD_I2C_Init_7:
        ANDS     R1,R1,#0x3F
        STRB     R1,[R0, #+1]
//  150   i2cx->C1 |= I2C_C1_IICEN_MASK;      //使能I2Cx
        LDRB     R1,[R0, #+2]
        ORRS     R1,R1,#0x80
        STRB     R1,[R0, #+2]
//  151   
//  152   return 1;
        MOVS     R0,#+1
??LPLD_I2C_Init_9:
        ADD      SP,SP,#+16
        POP      {R4-R7}
        BX       LR               ;; return
??LPLD_I2C_Init_5:
        UXTB     R2,R2            ;; ZeroExt  R2,R2,#+24,#+24
        CMP      R2,#+33
        BNE.N    ??LPLD_I2C_Init_10
        UXTB     R4,R4            ;; ZeroExt  R4,R4,#+24,#+24
        ORRS     R2,R4,#0x200
        LDR.N    R4,??DataTable7_9  ;; 0x4004a004
        STR      R2,[R4, #+0]
        B.N      ??LPLD_I2C_Init_6
??LPLD_I2C_Init_10:
        UXTB     R4,R4            ;; ZeroExt  R4,R4,#+24,#+24
        ORRS     R2,R4,#0x200
        LDR.N    R4,??DataTable7_10  ;; 0x4004a00c
        STR      R2,[R4, #+0]
        B.N      ??LPLD_I2C_Init_6
??LPLD_I2C_Init_1:
        LDR.N    R6,??DataTable7_11  ;; 0x40067000
        CMP      R0,R6
        BNE.N    ??LPLD_I2C_Init_11
        LDR.N    R6,??DataTable7_3  ;; 0x40048034
        LDR      R6,[R6, #+0]
        ORRS     R6,R6,#0x80
        LDR.N    R7,??DataTable7_3  ;; 0x40048034
        STR      R6,[R7, #+0]
        UXTB     R5,R5            ;; ZeroExt  R5,R5,#+24,#+24
        CMP      R5,#+125
        BNE.N    ??LPLD_I2C_Init_12
        UXTB     R4,R4            ;; ZeroExt  R4,R4,#+24,#+24
        ORRS     R5,R4,#0x600
        LDR.N    R6,??DataTable7_12  ;; 0x4004d004
        STR      R5,[R6, #+0]
        B.N      ??LPLD_I2C_Init_13
??LPLD_I2C_Init_12:
        UXTB     R4,R4            ;; ZeroExt  R4,R4,#+24,#+24
        ORRS     R5,R4,#0x200
        LDR.N    R6,??DataTable7_13  ;; 0x4004b028
        STR      R5,[R6, #+0]
??LPLD_I2C_Init_13:
        UXTB     R2,R2            ;; ZeroExt  R2,R2,#+24,#+24
        CMP      R2,#+124
        BNE.N    ??LPLD_I2C_Init_14
        UXTB     R4,R4            ;; ZeroExt  R4,R4,#+24,#+24
        ORRS     R2,R4,#0x600
        LDR.N    R4,??DataTable7_14  ;; 0x4004d000
        STR      R2,[R4, #+0]
        B.N      ??LPLD_I2C_Init_6
??LPLD_I2C_Init_14:
        UXTB     R4,R4            ;; ZeroExt  R4,R4,#+24,#+24
        ORRS     R2,R4,#0x200
        LDR.N    R4,??DataTable7_15  ;; 0x4004b02c
        STR      R2,[R4, #+0]
        B.N      ??LPLD_I2C_Init_6
??LPLD_I2C_Init_11:
        MOVS     R0,#+0
        B.N      ??LPLD_I2C_Init_9
??LPLD_I2C_Init_8:
        LDR.N    R2,??DataTable7_2  ;; 0x40066000
        CMP      R0,R2
        BNE.N    ??LPLD_I2C_Init_15
        LDR.N    R2,??DataTable7_8
        STR      R3,[R2, #+4]
        B.N      ??LPLD_I2C_Init_7
??LPLD_I2C_Init_15:
        MOVS     R0,#+0
        B.N      ??LPLD_I2C_Init_9
//  153 }
//  154 
//  155 /*
//  156  * LPLD_I2C_Deinit
//  157  * I2C模块反初始化函数，在该函数中关闭I2Cx的外设总线时钟，关闭I2C模块的
//  158  * 时钟，禁止外设中断。
//  159  *
//  160  * 参数:
//  161  *    I2C_InitTypeDef--i2c_init_structure
//  162  *                     具体定义见I2C_InitTypeDef
//  163  *
//  164  * 输出:
//  165  *    无
//  166  *
//  167  */  

        SECTION `.text`:CODE:NOROOT(1)
        THUMB
//  168 uint8 LPLD_I2C_Deinit(I2C_InitTypeDef i2c_init_structure)
//  169 {
LPLD_I2C_Deinit:
        PUSH     {R7,LR}
//  170   I2C_Type *i2cx = i2c_init_structure.I2C_I2Cx;
//  171 
//  172   i2cx->C1 &= ~I2C_C1_IICEN_MASK;      //I2Cx
        LDRB     R1,[R0, #+2]
        ANDS     R1,R1,#0x7F
        STRB     R1,[R0, #+2]
//  173   if(i2cx == I2C0)
        LDR.N    R1,??DataTable7_2  ;; 0x40066000
        CMP      R0,R1
        BNE.N    ??LPLD_I2C_Deinit_0
//  174   {
//  175 #if defined(CPU_MK60DZ10) || defined(CPU_MK60D10)  
//  176     SIM->SCGC4 |= SIM_SCGC4_I2C0_MASK; //开启I2C0时钟
//  177 #elif defined(CPU_MK60F12) || defined(CPU_MK60F15)
//  178     SIM->SCGC4 |= SIM_SCGC4_IIC0_MASK; //开启I2C0时钟
        LDR.N    R0,??DataTable7_3  ;; 0x40048034
        LDR      R0,[R0, #+0]
        ORRS     R0,R0,#0x40
        LDR.N    R1,??DataTable7_3  ;; 0x40048034
        STR      R0,[R1, #+0]
//  179 #endif
//  180     disable_irq((IRQn_Type)I2C0_IRQn);
        MOVS     R0,#+24
        BL       NVIC_DisableIRQ
//  181   }
//  182   else if (i2cx == I2C1)
//  183   {
//  184 #if defined(CPU_MK60DZ10) || defined(CPU_MK60D10)  
//  185     SIM->SCGC4 |= SIM_SCGC4_I2C1_MASK; //开启I2C0时钟
//  186 #elif defined(CPU_MK60F12) || defined(CPU_MK60F15)
//  187     SIM->SCGC4 |= SIM_SCGC4_IIC1_MASK; //开启I2C0时钟
//  188 #endif
//  189     disable_irq((IRQn_Type)I2C1_IRQn);
//  190   }
//  191   else
//  192   {
//  193     return 0;
//  194   }
//  195   return 1;
??LPLD_I2C_Deinit_1:
        MOVS     R0,#+1
??LPLD_I2C_Deinit_2:
        POP      {R1,PC}          ;; return
??LPLD_I2C_Deinit_0:
        LDR.N    R1,??DataTable7_11  ;; 0x40067000
        CMP      R0,R1
        BNE.N    ??LPLD_I2C_Deinit_3
        LDR.N    R0,??DataTable7_3  ;; 0x40048034
        LDR      R0,[R0, #+0]
        ORRS     R0,R0,#0x80
        LDR.N    R1,??DataTable7_3  ;; 0x40048034
        STR      R0,[R1, #+0]
        MOVS     R0,#+25
        BL       NVIC_DisableIRQ
        B.N      ??LPLD_I2C_Deinit_1
??LPLD_I2C_Deinit_3:
        MOVS     R0,#+0
        B.N      ??LPLD_I2C_Deinit_2
//  196 }
//  197 
//  198 /*
//  199  * LPLD_I2C_EnableIrq
//  200  * I2C外设中断使能
//  201  *
//  202  * 参数:
//  203  *    I2C_InitTypeDef--i2c_init_structure
//  204  *                     具体定义见I2C_InitTypeDef
//  205  *
//  206  * 输出:
//  207  *    无
//  208  *
//  209  */  

        SECTION `.text`:CODE:NOROOT(1)
        THUMB
//  210 void LPLD_I2C_EnableIrq(I2C_InitTypeDef i2c_init_structure)
//  211 {
LPLD_I2C_EnableIrq:
        PUSH     {R7,LR}
//  212   I2C_Type *i2cx = i2c_init_structure.I2C_I2Cx; 
//  213 
//  214   if(i2cx == I2C0)
        LDR.N    R1,??DataTable7_2  ;; 0x40066000
        CMP      R0,R1
        BNE.N    ??LPLD_I2C_EnableIrq_0
//  215   {
//  216     enable_irq((IRQn_Type)I2C0_IRQn);
        MOVS     R0,#+24
        BL       NVIC_EnableIRQ
//  217   }
//  218   else if (i2cx == I2C1)
//  219   {
//  220     enable_irq((IRQn_Type)I2C1_IRQn);
//  221   }
//  222   else
//  223   {
//  224     return;
//  225   }
//  226 }
??LPLD_I2C_EnableIrq_1:
??LPLD_I2C_EnableIrq_2:
        POP      {R0,PC}          ;; return
??LPLD_I2C_EnableIrq_0:
        LDR.N    R1,??DataTable7_11  ;; 0x40067000
        CMP      R0,R1
        BNE.N    ??LPLD_I2C_EnableIrq_3
        MOVS     R0,#+25
        BL       NVIC_EnableIRQ
        B.N      ??LPLD_I2C_EnableIrq_1
??LPLD_I2C_EnableIrq_3:
        B.N      ??LPLD_I2C_EnableIrq_2
//  227 
//  228 /*
//  229  * LPLD_I2C_DisableIrq
//  230  * 禁止I2C外设中断
//  231  *
//  232  * 参数:
//  233  *    I2C_InitTypeDef--i2c_init_structure
//  234  *                     具体定义见I2C_InitTypeDef
//  235  *
//  236  * 输出:
//  237  *    无
//  238  *
//  239  */  

        SECTION `.text`:CODE:NOROOT(1)
        THUMB
//  240 void LPLD_I2C_DisableIrq(I2C_InitTypeDef i2c_init_structure)
//  241 {
LPLD_I2C_DisableIrq:
        PUSH     {R7,LR}
//  242   I2C_Type *i2cx = i2c_init_structure.I2C_I2Cx;
//  243   i2cx->C1 &= ~I2C_C1_IICIE_MASK;
        LDRB     R1,[R0, #+2]
        ANDS     R1,R1,#0xBF
        STRB     R1,[R0, #+2]
//  244 
//  245   if(i2cx == I2C0)
        LDR.N    R1,??DataTable7_2  ;; 0x40066000
        CMP      R0,R1
        BNE.N    ??LPLD_I2C_DisableIrq_0
//  246   {
//  247     disable_irq((IRQn_Type)I2C0_IRQn);
        MOVS     R0,#+24
        BL       NVIC_DisableIRQ
//  248   }
//  249   else if (i2cx == I2C1)
//  250   {
//  251     disable_irq((IRQn_Type)I2C1_IRQn);
//  252   }
//  253   else
//  254   {
//  255     return;
//  256   }
//  257 }
??LPLD_I2C_DisableIrq_1:
??LPLD_I2C_DisableIrq_2:
        POP      {R0,PC}          ;; return
??LPLD_I2C_DisableIrq_0:
        LDR.N    R1,??DataTable7_11  ;; 0x40067000
        CMP      R0,R1
        BNE.N    ??LPLD_I2C_DisableIrq_3
        MOVS     R0,#+25
        BL       NVIC_DisableIRQ
        B.N      ??LPLD_I2C_DisableIrq_1
??LPLD_I2C_DisableIrq_3:
        B.N      ??LPLD_I2C_DisableIrq_2
//  258 
//  259 /*
//  260  * LPLD_I2C_Start
//  261  * 产生I2C开始信号
//  262  * 
//  263  * 参数:
//  264  *    i2cx--选择I2C模块的通道
//  265  *      |__I2C0           --I2C通道0
//  266  *      |__I2C1           --I2C通道1
//  267  * 输出:
//  268  *    无
//  269  */

        SECTION `.text`:CODE:NOROOT(1)
        THUMB
//  270 void LPLD_I2C_Start(I2C_Type *i2cx)
//  271 {
//  272   i2cx->C1 |= I2C_C1_TX_MASK ;
LPLD_I2C_Start:
        LDRB     R1,[R0, #+2]
        ORRS     R1,R1,#0x10
        STRB     R1,[R0, #+2]
//  273   i2cx->C1 |= I2C_C1_MST_MASK ;
        LDRB     R1,[R0, #+2]
        ORRS     R1,R1,#0x20
        STRB     R1,[R0, #+2]
//  274 }
        BX       LR               ;; return
//  275 
//  276 /*
//  277  * LPLD_ReStart
//  278  * I2C再次产生开始信号
//  279  * 
//  280  * 参数:
//  281  *    i2cx--选择I2C模块的通道
//  282  *      |__I2C0           --I2C通道0
//  283  *      |__I2C1           --I2C通道1
//  284  * 输出:
//  285  *    无
//  286 */

        SECTION `.text`:CODE:NOROOT(1)
        THUMB
//  287 void LPLD_I2C_ReStart(I2C_Type *i2cx)
//  288 {
//  289   i2cx->C1 |= I2C_C1_RSTA_MASK ;
LPLD_I2C_ReStart:
        LDRB     R1,[R0, #+2]
        ORRS     R1,R1,#0x4
        STRB     R1,[R0, #+2]
//  290 }
        BX       LR               ;; return
//  291 
//  292 /*
//  293  * LPLD_I2C_Stop
//  294  * 产生I2C停止信号
//  295  * 
//  296  * 参数:
//  297  *    i2cx--选择I2C模块的通道
//  298  *      |__I2C0           --I2C通道0
//  299  *      |__I2C1           --I2C通道1
//  300  * 输出:
//  301  *    无
//  302  */

        SECTION `.text`:CODE:NOROOT(1)
        THUMB
//  303 void LPLD_I2C_Stop(I2C_Type *i2cx)
//  304 {
//  305   i2cx->C1 &=(~I2C_C1_MST_MASK);
LPLD_I2C_Stop:
        LDRB     R1,[R0, #+2]
        ANDS     R1,R1,#0xDF
        STRB     R1,[R0, #+2]
//  306   i2cx->C1 &=(~I2C_C1_TX_MASK); 
        LDRB     R1,[R0, #+2]
        ANDS     R1,R1,#0xEF
        STRB     R1,[R0, #+2]
//  307 }
        BX       LR               ;; return
//  308 
//  309 /*
//  310  * LPLD_I2C_WaitAck
//  311  * I2C设置等待应答信号，开启则等待，关闭则不等待
//  312  * 
//  313  * 参数:
//  314  *    i2cx--选择I2C模块的通道
//  315  *      |__I2C0           --I2C通道0
//  316  *      |__I2C1           --I2C通道1
//  317  *    is_wait--选择是否等待应答
//  318  *      |__I2C_ACK_OFF    --关闭等待Ack
//  319  *      |__I2C_ACK_ON     --开启等待Ack，并等待ACK信号
//  320  * 输出:
//  321  *    无
//  322  */

        SECTION `.text`:CODE:NOROOT(1)
        THUMB
//  323 void LPLD_I2C_WaitAck(I2C_Type *i2cx, uint8 is_wait)
//  324 {
//  325   uint16 time_out;
//  326   if(is_wait == I2C_ACK_ON)
LPLD_I2C_WaitAck:
        UXTB     R1,R1            ;; ZeroExt  R1,R1,#+24,#+24
        CMP      R1,#+1
        BEQ.N    ??LPLD_I2C_WaitAck_0
//  327   {
//  328     while(!(i2cx->S & I2C_S_IICIF_MASK))
//  329     {
//  330       if(time_out>60000) //如果等待超时，强行退出
//  331         break;
//  332       else time_out++;
//  333     }
//  334     i2cx->S |= I2C_S_IICIF_MASK;
//  335   }
//  336   else
//  337   {
//  338     //关闭I2C的ACK
//  339     i2cx->C1 |= I2C_C1_TXAK_MASK; 
        LDRB     R1,[R0, #+2]
        ORRS     R1,R1,#0x8
        STRB     R1,[R0, #+2]
//  340   }
//  341 }
??LPLD_I2C_WaitAck_1:
        BX       LR               ;; return
??LPLD_I2C_WaitAck_2:
        ADDS     R2,R2,#+1
??LPLD_I2C_WaitAck_0:
        LDRB     R1,[R0, #+3]
        LSLS     R1,R1,#+30
        BMI.N    ??LPLD_I2C_WaitAck_3
        UXTH     R2,R2            ;; ZeroExt  R2,R2,#+16,#+16
        MOVW     R1,#+60001
        CMP      R2,R1
        BLT.N    ??LPLD_I2C_WaitAck_2
??LPLD_I2C_WaitAck_3:
        LDRB     R1,[R0, #+3]
        ORRS     R1,R1,#0x2
        STRB     R1,[R0, #+3]
        B.N      ??LPLD_I2C_WaitAck_1
//  342 
//  343 /*
//  344  * LPLD_I2C_Write
//  345  * I2C发送一个字节给目的地址设备
//  346  * 
//  347  * 参数:
//  348  *    i2cx--选择I2C模块的通道
//  349  *      |__I2C0           --I2C通道0
//  350  *      |__I2C1           --I2C通道1
//  351  *    data8--要发送的字节数据
//  352  * 输出:
//  353  *    无
//  354  *
//  355  */

        SECTION `.text`:CODE:NOROOT(1)
        THUMB
//  356 void LPLD_I2C_WriteByte(I2C_Type *i2cx, uint8 data8)
//  357 {
//  358   i2cx->D = data8; 
LPLD_I2C_WriteByte:
        STRB     R1,[R0, #+4]
//  359 }
        BX       LR               ;; return
//  360 
//  361 /*
//  362  * LPLD_I2C_Read
//  363  * I2C从外部设备读一个字节
//  364  * 
//  365  * 参数:
//  366  *    i2cx--选择I2C模块的通道
//  367  *      |__I2C0           --I2C通道0
//  368  *      |__I2C1           --I2C通道1
//  369  * 输出:
//  370  *    I2C读取的字节 
//  371  */
//  372 

        SECTION `.text`:CODE:NOROOT(1)
        THUMB
//  373 uint8 LPLD_I2C_ReadByte(I2C_Type *i2cx)
//  374 {
//  375   uint8 temp;
//  376   temp = i2cx->D; 
LPLD_I2C_ReadByte:
        LDRB     R0,[R0, #+4]
//  377   return temp;
        UXTB     R0,R0            ;; ZeroExt  R0,R0,#+24,#+24
        BX       LR               ;; return
//  378 }
//  379 
//  380 /*
//  381  * LPLD_I2C_SetMasterWR
//  382  * I2C主机读写模式配置
//  383  * 
//  384  * 参数:
//  385  *    IICx--选择I2C模块的通道
//  386  *      |__I2C0           --I2C通道0
//  387  *      |__I2C1           --I2C通道1
//  388  *    mode--读写模式选择
//  389  *      |__I2C_MWSR         --主机写
//  390  *      |__I2C_MRSW         --主机读
//  391  * 输出:
//  392  *    无
//  393  */

        SECTION `.text`:CODE:NOROOT(1)
        THUMB
//  394 void LPLD_I2C_SetMasterWR(I2C_Type *i2cx, uint8 mode)
//  395 {
//  396   if(mode==I2C_MRSW) 
LPLD_I2C_SetMasterWR:
        UXTB     R1,R1            ;; ZeroExt  R1,R1,#+24,#+24
        CMP      R1,#+1
        BNE.N    ??LPLD_I2C_SetMasterWR_0
//  397     i2cx->C1 &= (~I2C_C1_TX_MASK);
        LDRB     R1,[R0, #+2]
        ANDS     R1,R1,#0xEF
        STRB     R1,[R0, #+2]
        B.N      ??LPLD_I2C_SetMasterWR_1
//  398   else
//  399     i2cx->C1 |= ( I2C_C1_TX_MASK);
??LPLD_I2C_SetMasterWR_0:
        LDRB     R1,[R0, #+2]
        ORRS     R1,R1,#0x10
        STRB     R1,[R0, #+2]
//  400 }
??LPLD_I2C_SetMasterWR_1:
        BX       LR               ;; return
//  401 
//  402 /*
//  403  * LPLD_I2C_StartTrans
//  404  * I2C开始传输函数，需要设置外围设备地址和读写模式
//  405  * 
//  406  * 参数:
//  407  *    IICx--选择I2C模块的通道
//  408  *      |__I2C0           --I2C通道0
//  409  *      |__I2C1           --I2C通道1
//  410  *    addr--外围设备地址     
//  411  *    mode--读写模式选择
//  412  *      |__I2C_MWSR         --主机写
//  413  *      |__I2C_MRSW         --主机读
//  414  * 输出:
//  415  *    无
//  416  */

        SECTION `.text`:CODE:NOROOT(1)
        THUMB
//  417 void LPLD_I2C_StartTrans(I2C_Type *i2cx, uint8 addr, uint8 mode)
//  418 {
LPLD_I2C_StartTrans:
        PUSH     {R4-R6,LR}
        MOVS     R4,R0
        MOVS     R5,R1
        MOVS     R6,R2
//  419   //I2C产生start信号
//  420   LPLD_I2C_Start(i2cx);
        MOVS     R0,R4
        BL       LPLD_I2C_Start
//  421   //将从机地址和主机读写位合成一个字节写入
//  422   LPLD_I2C_WriteByte(i2cx, (addr<<1)|mode );
        ORRS     R1,R6,R5, LSL #+1
        UXTB     R1,R1            ;; ZeroExt  R1,R1,#+24,#+24
        MOVS     R0,R4
        BL       LPLD_I2C_WriteByte
//  423 }
        POP      {R4-R6,PC}       ;; return
//  424 
//  425 //HW层中断函数，用户无需调用

        SECTION `.text`:CODE:NOROOT(1)
        THUMB
//  426 void I2C0_IRQHandler(void)
//  427 {
I2C0_IRQHandler:
        PUSH     {R7,LR}
//  428 #if (UCOS_II > 0u)
//  429   OS_CPU_SR  cpu_sr = 0u;
//  430   OS_ENTER_CRITICAL(); //告知系统此时已经进入了中断服务子函数
//  431   OSIntEnter();
//  432   OS_EXIT_CRITICAL();
//  433 #endif
//  434   if(I2C0->S & I2C_S_IICIF_MASK)
        LDR.N    R0,??DataTable7_16  ;; 0x40066003
        LDRB     R0,[R0, #+0]
        LSLS     R0,R0,#+30
        BPL.N    ??I2C0_IRQHandler_0
//  435   {
//  436     I2C_ISR[0]();
        LDR.N    R0,??DataTable7_8
        LDR      R0,[R0, #+0]
        BLX      R0
//  437     if(I2C0->SMB & I2C_SMB_SLTF_MASK)
        LDR.N    R0,??DataTable7_17  ;; 0x40066008
        LDRB     R0,[R0, #+0]
        LSLS     R0,R0,#+28
        BPL.N    ??I2C0_IRQHandler_1
//  438     {
//  439       I2C0->SMB |= I2C_SMB_SLTF_MASK;
        LDR.N    R0,??DataTable7_17  ;; 0x40066008
        LDRB     R0,[R0, #+0]
        ORRS     R0,R0,#0x8
        LDR.N    R1,??DataTable7_17  ;; 0x40066008
        STRB     R0,[R1, #+0]
//  440     }
//  441     if(I2C0->SMB & I2C_SMB_SHTF2_MASK)
??I2C0_IRQHandler_1:
        LDR.N    R0,??DataTable7_17  ;; 0x40066008
        LDRB     R0,[R0, #+0]
        LSLS     R0,R0,#+30
        BPL.N    ??I2C0_IRQHandler_2
//  442     {
//  443       I2C0->SMB |= I2C_SMB_SHTF2_MASK;
        LDR.N    R0,??DataTable7_17  ;; 0x40066008
        LDRB     R0,[R0, #+0]
        ORRS     R0,R0,#0x2
        LDR.N    R1,??DataTable7_17  ;; 0x40066008
        STRB     R0,[R1, #+0]
//  444     }
//  445     if(I2C0->S & I2C_S_ARBL_MASK)
??I2C0_IRQHandler_2:
        LDR.N    R0,??DataTable7_16  ;; 0x40066003
        LDRB     R0,[R0, #+0]
        LSLS     R0,R0,#+27
        BPL.N    ??I2C0_IRQHandler_3
//  446     {
//  447       I2C0->S |= I2C_S_ARBL_MASK;
        LDR.N    R0,??DataTable7_16  ;; 0x40066003
        LDRB     R0,[R0, #+0]
        ORRS     R0,R0,#0x10
        LDR.N    R1,??DataTable7_16  ;; 0x40066003
        STRB     R0,[R1, #+0]
//  448     }
//  449     I2C0->S |= I2C_S_IICIF_MASK;
??I2C0_IRQHandler_3:
        LDR.N    R0,??DataTable7_16  ;; 0x40066003
        LDRB     R0,[R0, #+0]
        ORRS     R0,R0,#0x2
        LDR.N    R1,??DataTable7_16  ;; 0x40066003
        STRB     R0,[R1, #+0]
//  450   }
//  451 #if (UCOS_II > 0u)
//  452   OSIntExit();          //告知系统此时即将离开中断服务子函数
//  453 #endif
//  454 }
??I2C0_IRQHandler_0:
        POP      {R0,PC}          ;; return
//  455 //HW层中断函数，用户无需调用

        SECTION `.text`:CODE:NOROOT(1)
        THUMB
//  456 void I2C1_IRQHandler(void)
//  457 {
I2C1_IRQHandler:
        PUSH     {R7,LR}
//  458 
//  459 #if (UCOS_II > 0u)
//  460   OS_CPU_SR  cpu_sr = 0u;
//  461   OS_ENTER_CRITICAL(); //告知系统此时已经进入了中断服务子函数
//  462   OSIntEnter();
//  463   OS_EXIT_CRITICAL();
//  464 #endif
//  465 
//  466   if(I2C1->S & I2C_S_IICIF_MASK)
        LDR.N    R0,??DataTable7_18  ;; 0x40067003
        LDRB     R0,[R0, #+0]
        LSLS     R0,R0,#+30
        BPL.N    ??I2C1_IRQHandler_0
//  467   {
//  468     I2C_ISR[1]();
        LDR.N    R0,??DataTable7_8
        LDR      R0,[R0, #+4]
        BLX      R0
//  469     if(I2C1->SMB & I2C_SMB_SLTF_MASK)
        LDR.N    R0,??DataTable7_19  ;; 0x40067008
        LDRB     R0,[R0, #+0]
        LSLS     R0,R0,#+28
        BPL.N    ??I2C1_IRQHandler_1
//  470     {
//  471       I2C1->SMB |= I2C_SMB_SLTF_MASK;
        LDR.N    R0,??DataTable7_19  ;; 0x40067008
        LDRB     R0,[R0, #+0]
        ORRS     R0,R0,#0x8
        LDR.N    R1,??DataTable7_19  ;; 0x40067008
        STRB     R0,[R1, #+0]
//  472     }
//  473     if(I2C1->SMB & I2C_SMB_SHTF2_MASK)
??I2C1_IRQHandler_1:
        LDR.N    R0,??DataTable7_19  ;; 0x40067008
        LDRB     R0,[R0, #+0]
        LSLS     R0,R0,#+30
        BPL.N    ??I2C1_IRQHandler_2
//  474     {
//  475       I2C1->SMB |= I2C_SMB_SHTF2_MASK;
        LDR.N    R0,??DataTable7_19  ;; 0x40067008
        LDRB     R0,[R0, #+0]
        ORRS     R0,R0,#0x2
        LDR.N    R1,??DataTable7_19  ;; 0x40067008
        STRB     R0,[R1, #+0]
//  476     }
//  477     if(I2C1->S & I2C_S_ARBL_MASK)
??I2C1_IRQHandler_2:
        LDR.N    R0,??DataTable7_18  ;; 0x40067003
        LDRB     R0,[R0, #+0]
        LSLS     R0,R0,#+27
        BPL.N    ??I2C1_IRQHandler_3
//  478     {
//  479       I2C1->S |= I2C_S_ARBL_MASK;
        LDR.N    R0,??DataTable7_18  ;; 0x40067003
        LDRB     R0,[R0, #+0]
        ORRS     R0,R0,#0x10
        LDR.N    R1,??DataTable7_18  ;; 0x40067003
        STRB     R0,[R1, #+0]
//  480     }
//  481     I2C1->S |= I2C_S_IICIF_MASK;
??I2C1_IRQHandler_3:
        LDR.N    R0,??DataTable7_18  ;; 0x40067003
        LDRB     R0,[R0, #+0]
        ORRS     R0,R0,#0x2
        LDR.N    R1,??DataTable7_18  ;; 0x40067003
        STRB     R0,[R1, #+0]
//  482   }
//  483   
//  484 #if (UCOS_II > 0u)
//  485   OSIntExit();          //告知系统此时即将离开中断服务子函数
//  486 #endif
//  487 }
??I2C1_IRQHandler_0:
        POP      {R0,PC}          ;; return

        SECTION `.text`:CODE:NOROOT(2)
        SECTION_TYPE SHT_PROGBITS, 0
        DATA
??DataTable7:
        DC32     0xe000e100

        SECTION `.text`:CODE:NOROOT(2)
        SECTION_TYPE SHT_PROGBITS, 0
        DATA
??DataTable7_1:
        DC32     0xe000e180

        SECTION `.text`:CODE:NOROOT(2)
        SECTION_TYPE SHT_PROGBITS, 0
        DATA
??DataTable7_2:
        DC32     0x40066000

        SECTION `.text`:CODE:NOROOT(2)
        SECTION_TYPE SHT_PROGBITS, 0
        DATA
??DataTable7_3:
        DC32     0x40048034

        SECTION `.text`:CODE:NOROOT(2)
        SECTION_TYPE SHT_PROGBITS, 0
        DATA
??DataTable7_4:
        DC32     0x4004c020

        SECTION `.text`:CODE:NOROOT(2)
        SECTION_TYPE SHT_PROGBITS, 0
        DATA
??DataTable7_5:
        DC32     0x4004a000

        SECTION `.text`:CODE:NOROOT(2)
        SECTION_TYPE SHT_PROGBITS, 0
        DATA
??DataTable7_6:
        DC32     0x4004a008

        SECTION `.text`:CODE:NOROOT(2)
        SECTION_TYPE SHT_PROGBITS, 0
        DATA
??DataTable7_7:
        DC32     0x4004c024

        SECTION `.text`:CODE:NOROOT(2)
        SECTION_TYPE SHT_PROGBITS, 0
        DATA
??DataTable7_8:
        DC32     I2C_ISR

        SECTION `.text`:CODE:NOROOT(2)
        SECTION_TYPE SHT_PROGBITS, 0
        DATA
??DataTable7_9:
        DC32     0x4004a004

        SECTION `.text`:CODE:NOROOT(2)
        SECTION_TYPE SHT_PROGBITS, 0
        DATA
??DataTable7_10:
        DC32     0x4004a00c

        SECTION `.text`:CODE:NOROOT(2)
        SECTION_TYPE SHT_PROGBITS, 0
        DATA
??DataTable7_11:
        DC32     0x40067000

        SECTION `.text`:CODE:NOROOT(2)
        SECTION_TYPE SHT_PROGBITS, 0
        DATA
??DataTable7_12:
        DC32     0x4004d004

        SECTION `.text`:CODE:NOROOT(2)
        SECTION_TYPE SHT_PROGBITS, 0
        DATA
??DataTable7_13:
        DC32     0x4004b028

        SECTION `.text`:CODE:NOROOT(2)
        SECTION_TYPE SHT_PROGBITS, 0
        DATA
??DataTable7_14:
        DC32     0x4004d000

        SECTION `.text`:CODE:NOROOT(2)
        SECTION_TYPE SHT_PROGBITS, 0
        DATA
??DataTable7_15:
        DC32     0x4004b02c

        SECTION `.text`:CODE:NOROOT(2)
        SECTION_TYPE SHT_PROGBITS, 0
        DATA
??DataTable7_16:
        DC32     0x40066003

        SECTION `.text`:CODE:NOROOT(2)
        SECTION_TYPE SHT_PROGBITS, 0
        DATA
??DataTable7_17:
        DC32     0x40066008

        SECTION `.text`:CODE:NOROOT(2)
        SECTION_TYPE SHT_PROGBITS, 0
        DATA
??DataTable7_18:
        DC32     0x40067003

        SECTION `.text`:CODE:NOROOT(2)
        SECTION_TYPE SHT_PROGBITS, 0
        DATA
??DataTable7_19:
        DC32     0x40067008

        SECTION `.iar_vfe_header`:DATA:NOALLOC:NOROOT(2)
        SECTION_TYPE SHT_PROGBITS, 0
        DATA
        DC32 0

        SECTION __DLIB_PERTHREAD:DATA:REORDER:NOROOT(0)
        SECTION_TYPE SHT_PROGBITS, 0

        SECTION __DLIB_PERTHREAD_init:DATA:REORDER:NOROOT(0)
        SECTION_TYPE SHT_PROGBITS, 0

        END
//  488 
//  489 
//  490 
// 
//   8 bytes in section .bss
// 890 bytes in section .text
// 
// 890 bytes of CODE memory
//   8 bytes of DATA memory
//
//Errors: none
//Warnings: none
